Certificate:
    Data:
        Version: 3 (0x2)
        Serial Number: 2 (0x2)
    Signature Algorithm: sha1WithRSAEncryption
        Issuer: C=CN, ST=BJ, L=BJ, O=Youdao, OU=IT, CN=youdao-ca/name=y-ca/emailAddress=nsadmin@corp.youdao.com
        Validity
            Not Before: Jun 28 12:24:14 2019 GMT
            Not After : Jun 25 12:24:14 2029 GMT
        Subject: C=CN, ST=BJ, L=BJ, O=Youdao, OU=IT, CN=client/name=y-client/emailAddress=nsadmin@corp.youdao.com
        Subject Public Key Info:
            Public Key Algorithm: rsaEncryption
                Public-Key: (4096 bit)
                Modulus:
                    00:db:44:9d:36:3e:f7:48:75:1b:68:ee:0c:fc:fe:
                    d6:1a:8f:33:a3:6a:e3:6a:90:0c:95:d9:44:06:c9:
                    eb:81:41:df:95:59:81:9a:86:4b:cc:07:a6:c7:5c:
                    75:3b:e7:cb:ba:2d:ba:a2:01:09:3c:df:8d:e0:c7:
                    e2:db:ae:10:bc:87:8d:55:09:59:85:4b:c1:4f:47:
                    1d:36:61:b6:37:8d:d3:15:ff:7d:db:45:a1:94:90:
                    4f:45:2b:4d:43:f2:0b:9b:36:62:56:97:83:cf:77:
                    f7:cf:8f:e0:e5:c1:07:3f:94:b2:9e:bd:f2:fc:a0:
                    db:0c:a7:cb:b0:98:0c:f5:06:9e:bd:f8:49:8e:e1:
                    37:19:ad:f1:03:9d:fa:85:47:ec:82:0a:dd:fd:73:
                    79:91:23:c3:55:65:63:40:17:77:14:d2:cb:dd:bf:
                    78:cb:89:19:f2:9b:1c:f9:39:0f:9b:24:4a:09:0e:
                    55:98:4d:b9:90:af:65:69:1c:7f:44:00:f5:6a:b4:
                    c9:97:55:99:df:2a:10:61:35:01:6f:62:e2:fd:69:
                    3f:ff:4b:9f:32:a0:90:9a:4a:7f:56:ac:d3:85:7f:
                    a2:45:7c:b4:17:9f:65:77:72:16:b0:12:c7:b9:a0:
                    fb:5b:f8:5e:1f:8a:70:4d:5b:0f:ad:09:da:b1:d6:
                    bf:b1:72:eb:33:b9:a6:d9:bf:c2:1b:f0:38:59:61:
                    b4:90:40:e1:f6:e7:59:1d:a5:6e:48:6e:34:60:c3:
                    9b:9a:34:33:19:a3:71:f3:e5:65:6b:c2:a5:ee:a0:
                    ea:fc:3e:af:d9:49:bd:de:01:14:ac:d1:9b:4d:55:
                    35:f8:89:b1:36:b8:19:11:8a:35:6f:f5:2f:42:b9:
                    cb:46:e3:0e:c3:e6:99:0d:34:44:c1:52:60:0b:97:
                    18:b5:fe:69:d8:ca:72:01:25:0c:50:a0:0d:d1:80:
                    91:bb:28:0c:93:1e:a1:4d:dc:cd:98:f0:2f:48:23:
                    0b:b4:0f:a2:d6:94:e7:23:e6:19:7d:b7:6f:55:e3:
                    88:ab:ac:8f:37:4b:6f:b3:79:c5:9c:43:9e:87:7d:
                    46:33:68:6e:c3:e3:f2:84:01:2b:95:c3:21:3f:c8:
                    52:23:79:ec:d7:a8:cf:99:ed:b0:52:2a:43:57:ad:
                    52:79:ac:a8:0f:8f:7d:00:54:c5:b0:71:9a:bd:dc:
                    7f:c0:e7:81:ee:6d:c3:a8:c3:32:0c:d7:ee:0a:56:
                    63:19:48:bc:59:73:b7:0f:db:0d:a1:5f:91:83:d5:
                    10:18:8c:3d:46:a8:40:50:d6:b4:1c:12:17:8c:1b:
                    b1:1f:69:5f:b2:82:e7:a0:d9:bd:8e:63:df:60:69:
                    ad:68:13
                Exponent: 65537 (0x10001)
        X509v3 extensions:
            X509v3 Basic Constraints: 
                CA:FALSE
            Netscape Comment: 
                Easy-RSA Generated Certificate
            X509v3 Subject Key Identifier: 
                67:2A:46:70:E3:F7:1F:60:93:75:07:63:9C:84:E9:77:C9:8A:9A:F1
            X509v3 Authority Key Identifier: 
                keyid:C7:9D:D5:5C:8E:88:EC:CF:F4:A9:2F:BA:DC:D1:76:C2:6A:34:5D:06
                DirName:/C=CN/ST=BJ/L=BJ/O=Youdao/OU=IT/CN=youdao-ca/name=y-ca/emailAddress=nsadmin@corp.youdao.com
                serial:86:CB:96:05:7F:EE:65:15

            X509v3 Extended Key Usage: 
                TLS Web Client Authentication
            X509v3 Key Usage: 
                Digital Signature
    Signature Algorithm: sha1WithRSAEncryption
         6a:0d:62:0a:c4:5d:50:d3:31:a4:0b:1a:55:e1:d9:a1:d0:57:
         88:c4:22:c7:21:2b:c6:3b:a2:79:2b:94:50:cf:0d:34:92:16:
         54:fb:06:d6:0a:6b:6a:49:64:d8:d8:3c:97:ea:1e:28:e9:91:
         9c:c2:28:43:e0:33:95:14:38:bf:2c:e4:0c:75:0d:8c:32:b9:
         65:ea:d7:43:97:7f:a2:5c:4d:34:1d:21:7c:7c:f8:b6:ea:36:
         5f:70:dc:c7:b6:05:31:58:ec:59:d2:00:3e:7c:16:e1:3a:8c:
         6e:be:f3:62:4d:16:da:c0:64:07:2d:48:f3:62:df:0f:0f:68:
         23:19:f9:53:af:b4:e0:76:cb:05:dc:b2:e8:cd:00:33:dd:61:
         94:6b:71:fd:5d:08:fd:de:9e:52:73:fa:92:5c:8d:5b:6e:42:
         ae:2f:9c:aa:15:36:88:4f:78:a7:1b:d8:7e:3c:5e:43:6f:61:
         15:d3:48:89:0c:49:2b:fa:36:19:b5:1d:71:d0:31:9c:1a:96:
         68:50:25:09:23:54:19:3c:84:ac:28:1f:35:bc:b5:3d:79:eb:
         dd:28:5f:7f:71:dd:2d:00:1b:d2:fe:ad:ed:ef:15:bb:3b:d0:
         63:b7:4a:3f:7a:6a:ab:c2:c8:b2:ec:a2:5e:9e:35:e7:24:67:
         9e:c5:f9:f5:cb:f6:d8:b6:e1:8d:06:06:53:c2:bd:20:e6:43:
         ff:3d:b1:fc:2f:0c:60:fe:af:7b:2c:6c:27:57:ab:8d:a4:88:
         97:86:74:ab:ba:df:d0:52:f6:76:d0:61:45:3e:b5:30:dc:b1:
         2b:bd:71:35:48:83:4f:98:7b:50:ce:d2:19:2d:44:ba:40:96:
         55:ee:51:6a:1d:ba:2f:7c:8e:93:e4:cb:be:b9:70:fb:39:7f:
         d6:ad:3d:22:61:f8:e0:ee:5b:77:a0:2e:73:49:4d:10:a9:01:
         b3:5b:f1:41:b6:75:6e:c1:4d:b5:71:ba:29:93:3d:96:fc:ff:
         02:fd:47:d3:30:5a:44:c7:54:f0:3c:cf:6c:18:02:48:ec:d5:
         95:3d:cb:82:e2:be:d6:91:db:01:a7:56:34:78:56:83:57:e0:
         b9:10:1d:05:bf:95:2b:62:11:5c:b7:77:68:5f:f0:7a:e0:85:
         fa:70:a1:e9:3d:e4:e2:67:26:1a:44:07:fd:9f:2b:75:41:fd:
         65:4a:80:90:3a:6c:d3:4b:b6:9e:65:14:d7:0b:48:fb:7f:bb:
         6c:03:14:57:34:1a:23:37:fc:92:be:e3:dc:3f:80:80:0d:a2:
         f3:e8:ed:43:1c:9f:ed:a2:09:05:d3:bb:c2:cc:4a:98:70:db:
         07:5f:fc:e5:0a:69:71:d8
-----BEGIN CERTIFICATE-----
MIIG5zCCBM+gAwIBAgIBAjANBgkqhkiG9w0BAQUFADCBkDELMAkGA1UEBhMCQ04x
CzAJBgNVBAgTAkJKMQswCQYDVQQHEwJCSjEPMA0GA1UEChMGWW91ZGFvMQswCQYD
VQQLEwJJVDESMBAGA1UEAxMJeW91ZGFvLWNhMQ0wCwYDVQQpEwR5LWNhMSYwJAYJ
KoZIhvcNAQkBFhduc2FkbWluQGNvcnAueW91ZGFvLmNvbTAeFw0xOTA2MjgxMjI0
MTRaFw0yOTA2MjUxMjI0MTRaMIGRMQswCQYDVQQGEwJDTjELMAkGA1UECBMCQkox
CzAJBgNVBAcTAkJKMQ8wDQYDVQQKEwZZb3VkYW8xCzAJBgNVBAsTAklUMQ8wDQYD
VQQDEwZjbGllbnQxETAPBgNVBCkTCHktY2xpZW50MSYwJAYJKoZIhvcNAQkBFhdu
c2FkbWluQGNvcnAueW91ZGFvLmNvbTCCAiIwDQYJKoZIhvcNAQEBBQADggIPADCC
AgoCggIBANtEnTY+90h1G2juDPz+1hqPM6Nq42qQDJXZRAbJ64FB35VZgZqGS8wH
psdcdTvny7otuqIBCTzfjeDH4tuuELyHjVUJWYVLwU9HHTZhtjeN0xX/fdtFoZSQ
T0UrTUPyC5s2YlaXg89398+P4OXBBz+Usp698vyg2wyny7CYDPUGnr34SY7hNxmt
8QOd+oVH7IIK3f1zeZEjw1VlY0AXdxTSy92/eMuJGfKbHPk5D5skSgkOVZhNuZCv
ZWkcf0QA9Wq0yZdVmd8qEGE1AW9i4v1pP/9LnzKgkJpKf1as04V/okV8tBefZXdy
FrASx7mg+1v4Xh+KcE1bD60J2rHWv7Fy6zO5ptm/whvwOFlhtJBA4fbnWR2lbkhu
NGDDm5o0MxmjcfPlZWvCpe6g6vw+r9lJvd4BFKzRm01VNfiJsTa4GRGKNW/1L0K5
y0bjDsPmmQ00RMFSYAuXGLX+adjKcgElDFCgDdGAkbsoDJMeoU3czZjwL0gjC7QP
otaU5yPmGX23b1XjiKusjzdLb7N5xZxDnod9RjNobsPj8oQBK5XDIT/IUiN57Neo
z5ntsFIqQ1etUnmsqA+PfQBUxbBxmr3cf8Dnge5tw6jDMgzX7gpWYxlIvFlztw/b
DaFfkYPVEBiMPUaoQFDWtBwSF4wbsR9pX7KC56DZvY5j32BprWgTAgMBAAGjggFH
MIIBQzAJBgNVHRMEAjAAMC0GCWCGSAGG+EIBDQQgFh5FYXN5LVJTQSBHZW5lcmF0
ZWQgQ2VydGlmaWNhdGUwHQYDVR0OBBYEFGcqRnDj9x9gk3UHY5yE6XfJiprxMIHF
BgNVHSMEgb0wgbqAFMed1VyOiOzP9KkvutzRdsJqNF0GoYGWpIGTMIGQMQswCQYD
VQQGEwJDTjELMAkGA1UECBMCQkoxCzAJBgNVBAcTAkJKMQ8wDQYDVQQKEwZZb3Vk
YW8xCzAJBgNVBAsTAklUMRIwEAYDVQQDEwl5b3VkYW8tY2ExDTALBgNVBCkTBHkt
Y2ExJjAkBgkqhkiG9w0BCQEWF25zYWRtaW5AY29ycC55b3VkYW8uY29tggkAhsuW
BX/uZRUwEwYDVR0lBAwwCgYIKwYBBQUHAwIwCwYDVR0PBAQDAgeAMA0GCSqGSIb3
DQEBBQUAA4ICAQBqDWIKxF1Q0zGkCxpV4dmh0FeIxCLHISvGO6J5K5RQzw00khZU
+wbWCmtqSWTY2DyX6h4o6ZGcwihD4DOVFDi/LOQMdQ2MMrll6tdDl3+iXE00HSF8
fPi26jZfcNzHtgUxWOxZ0gA+fBbhOoxuvvNiTRbawGQHLUjzYt8PD2gjGflTr7Tg
dssF3LLozQAz3WGUa3H9XQj93p5Sc/qSXI1bbkKuL5yqFTaIT3inG9h+PF5Db2EV
00iJDEkr+jYZtR1x0DGcGpZoUCUJI1QZPISsKB81vLU9eevdKF9/cd0tABvS/q3t
7xW7O9Bjt0o/emqrwsiy7KJenjXnJGeexfn1y/bYtuGNBgZTwr0g5kP/PbH8Lwxg
/q97LGwnV6uNpIiXhnSrut/QUvZ20GFFPrUw3LErvXE1SINPmHtQztIZLUS6QJZV
7lFqHbovfI6T5Mu+uXD7OX/WrT0iYfjg7lt3oC5zSU0QqQGzW/FBtnVuwU21cbop
kz2W/P8C/UfTMFpEx1TwPM9sGAJI7NWVPcuC4r7WkdsBp1Y0eFaDV+C5EB0Fv5Ur
YhFct3doX/B64IX6cKHpPeTiZyYaRAf9nyt1Qf1lSoCQOmzTS7aeZRTXC0j7f7ts
AxRXNBojN/ySvuPcP4CADaLz6O1DHJ/togkF07vCzEqYcNsHX/zlCmlx2A==
-----END CERTIFICATE-----
